Certificate:
    Data:
        Version: 3 (0x2)
        Serial Number: 1 (0x1)
    Signature Algorithm: ecdsa-with-SHA256
        Issuer: CN=104.199.178.17
        Validity
            Not Before: May 17 09:11:52 2017 GMT
            Not After : May 15 09:11:52 2027 GMT
        Subject: CN=104.199.178.17
        Subject Public Key Info:
            Public Key Algorithm: id-ecPublicKey
                Public-Key: (256 bit)
                pub: 
                    04:02:8e:50:79:5f:94:f9:48:16:57:2d:42:53:70:
                    2e:f6:bf:68:87:04:94:f6:af:69:a7:0b:db:5c:a1:
                    30:42:e6:82:e7:24:a9:6a:c0:7b:26:00:cf:f1:a8:
                    df:b1:32:a6:68:ac:75:37:73:df:be:8a:00:e7:57:
                    1e:fe:1b:e1:af
                ASN1 OID: prime256v1
                NIST CURVE: P-256
        X509v3 extensions:
            X509v3 Basic Constraints: 
                CA:FALSE
            X509v3 Subject Key Identifier: 
                8D:B0:9A:04:1F:22:81:87:9F:41:25:40:0A:1B:C2:B2:6D:4F:2A:8B
            X509v3 Authority Key Identifier: 
                keyid:CC:19:27:65:A1:1F:80:7D:6E:07:1E:33:AE:18:67:7B:D6:45:D2:6B
                DirName:/CN=104.199.178.17
                serial:B0:A6:DF:BD:0B:3E:8E:72

            X509v3 Extended Key Usage: 
                TLS Web Server Authentication, TLS Web Client Authentication, 1.3.6.1.5.5.7.3.17
            X509v3 Key Usage: 
                Digital Signature, Key Encipherment
            X509v3 Subject Alternative Name: 
                DNS:104.199.178.17, IP Address:104.199.178.17
    Signature Algorithm: ecdsa-with-SHA256
         30:45:02:21:00:9c:0e:44:a5:22:f3:90:ae:01:07:bb:5e:2f:
         25:3e:d1:9e:16:9f:2d:62:da:ab:82:91:1e:df:f4:b3:52:2c:
         17:02:20:08:96:cf:a1:d5:c2:a8:a0:54:62:fc:1e:94:f1:e4:
         6c:c4:0b:81:2d:6f:c0:54:43:72:dc:a7:77:12:e6:70:12
-----BEGIN CERTIFICATE-----
MIIB8TCCAZegAwIBAgIBATAKBggqhkjOPQQDAjAZMRcwFQYDVQQDDA4xMDQuMTk5
LjE3OC4xNzAeFw0xNzA1MTcwOTExNTJaFw0yNzA1MTUwOTExNTJaMBkxFzAVBgNV
BAMMDjEwNC4xOTkuMTc4LjE3MFkwEwYHKoZIzj0CAQYIKoZIzj0DAQcDQgAEAo5Q
eV+U+UgWVy1CU3Au9r9ohwSU9q9ppwvbXKEwQuaC5ySpasB7JgDP8ajfsTKmaKx1
N3PfvooA51ce/hvhr6OBzzCBzDAJBgNVHRMEAjAAMB0GA1UdDgQWBBSNsJoEHyKB
h59BJUAKG8KybU8qizBJBgNVHSMEQjBAgBTMGSdloR+AfW4HHjOuGGd71kXSa6Ed
pBswGTEXMBUGA1UEAwwOMTA0LjE5OS4xNzguMTeCCQCwpt+9Cz6OcjAnBgNVHSUE
IDAeBggrBgEFBQcDAQYIKwYBBQUHAwIGCCsGAQUFBwMRMAsGA1UdDwQEAwIFoDAf
BgNVHREEGDAWgg4xMDQuMTk5LjE3OC4xN4cEaMeyETAKBggqhkjOPQQDAgNIADBF
AiEAnA5EpSLzkK4BB7teLyU+0Z4Wny1i2quCkR7f9LNSLBcCIAiWz6HVwqigVGL8
HpTx5GzEC4Etb8BUQ3Lcp3cS5nAS
-----END CERTIFICATE-----
