Certificate:
    Data:
        Version: 3 (0x2)
        Serial Number: 2 (0x2)
    Signature Algorithm: ecdsa-with-SHA256
        Issuer: CN=104.199.178.17
        Validity
            Not Before: May 17 09:11:52 2017 GMT
            Not After : May 15 09:11:52 2027 GMT
        Subject: CN=zqzz
        Subject Public Key Info:
            Public Key Algorithm: id-ecPublicKey
                Public-Key: (256 bit)
                pub: 
                    04:27:f7:51:47:ed:3b:2c:82:04:9c:2e:95:30:0f:
                    50:df:05:64:aa:80:db:c9:a9:74:ac:f1:be:71:b5:
                    19:fb:94:b4:20:64:23:f4:52:40:c8:44:69:65:5e:
                    d6:5b:0a:80:86:ca:b6:c2:ca:c8:21:ed:16:85:0c:
                    4d:e1:f1:99:81
                ASN1 OID: prime256v1
                NIST CURVE: P-256
        X509v3 extensions:
            X509v3 Basic Constraints: 
                CA:FALSE
            X509v3 Subject Key Identifier: 
                35:3E:62:4C:F5:5B:FF:52:45:DC:29:D0:25:99:13:30:23:F7:8A:38
            X509v3 Authority Key Identifier: 
                keyid:CC:19:27:65:A1:1F:80:7D:6E:07:1E:33:AE:18:67:7B:D6:45:D2:6B
                DirName:/CN=104.199.178.17
                serial:B0:A6:DF:BD:0B:3E:8E:72

            X509v3 Extended Key Usage: 
                TLS Web Server Authentication, TLS Web Client Authentication, 1.3.6.1.5.5.7.3.17
            X509v3 Key Usage: 
                Digital Signature, Key Encipherment
            X509v3 Subject Alternative Name: 
                DNS:zqzz
    Signature Algorithm: ecdsa-with-SHA256
         30:45:02:21:00:c7:90:fd:5a:11:7e:7f:df:a1:17:7e:ae:4c:
         3e:25:9f:44:0e:09:ad:30:15:9b:5b:dd:48:ee:0a:39:50:1e:
         d0:02:20:5d:92:dc:e1:24:5c:e4:88:e0:45:76:20:f2:31:de:
         96:45:24:03:b8:64:5a:7f:72:59:f5:11:b8:36:76:1f:24
-----BEGIN CERTIFICATE-----
MIIB1zCCAX2gAwIBAgIBAjAKBggqhkjOPQQDAjAZMRcwFQYDVQQDDA4xMDQuMTk5
LjE3OC4xNzAeFw0xNzA1MTcwOTExNTJaFw0yNzA1MTUwOTExNTJaMA8xDTALBgNV
BAMMBHpxenowWTATBgcqhkjOPQIBBggqhkjOPQMBBwNCAAQn91FH7TssggScLpUw
D1DfBWSqgNvJqXSs8b5xtRn7lLQgZCP0UkDIRGllXtZbCoCGyrbCysgh7RaFDE3h
8ZmBo4G/MIG8MAkGA1UdEwQCMAAwHQYDVR0OBBYEFDU+Ykz1W/9SRdwp0CWZEzAj
94o4MEkGA1UdIwRCMECAFMwZJ2WhH4B9bgceM64YZ3vWRdJroR2kGzAZMRcwFQYD
VQQDDA4xMDQuMTk5LjE3OC4xN4IJALCm370LPo5yMCcGA1UdJQQgMB4GCCsGAQUF
BwMBBggrBgEFBQcDAgYIKwYBBQUHAxEwCwYDVR0PBAQDAgWgMA8GA1UdEQQIMAaC
BHpxenowCgYIKoZIzj0EAwIDSAAwRQIhAMeQ/VoRfn/foRd+rkw+JZ9EDgmtMBWb
W91I7go5UB7QAiBdktzhJFzkiOBFdiDyMd6WRSQDuGRaf3JZ9RG4NnYfJA==
-----END CERTIFICATE-----
