Certificate:
    Data:
        Version: 3 (0x2)
        Serial Number: 3 (0x3)
    Signature Algorithm: ecdsa-with-SHA256
        Issuer: CN=104.199.178.17
        Validity
            Not Before: May 17 09:11:53 2017 GMT
            Not After : May 15 09:11:53 2027 GMT
        Subject: CN=lenger
        Subject Public Key Info:
            Public Key Algorithm: id-ecPublicKey
                Public-Key: (256 bit)
                pub: 
                    04:7a:53:59:05:80:8a:42:c2:48:de:0a:3b:25:0c:
                    18:1c:13:df:2b:2f:9e:a2:18:7b:85:33:15:c9:33:
                    c6:aa:9b:60:32:68:20:2f:2f:15:61:ef:e7:14:74:
                    1a:80:1b:ce:30:55:aa:fb:cb:fc:e9:21:c3:04:ca:
                    07:9a:45:0a:70
                ASN1 OID: prime256v1
                NIST CURVE: P-256
        X509v3 extensions:
            X509v3 Basic Constraints: 
                CA:FALSE
            X509v3 Subject Key Identifier: 
                4D:14:40:9E:0A:2C:DB:95:00:BE:B3:C1:64:22:D9:A8:8A:29:C3:5D
            X509v3 Authority Key Identifier: 
                keyid:CC:19:27:65:A1:1F:80:7D:6E:07:1E:33:AE:18:67:7B:D6:45:D2:6B
                DirName:/CN=104.199.178.17
                serial:B0:A6:DF:BD:0B:3E:8E:72

            X509v3 Extended Key Usage: 
                TLS Web Server Authentication, TLS Web Client Authentication, 1.3.6.1.5.5.7.3.17
            X509v3 Key Usage: 
                Digital Signature, Key Encipherment
            X509v3 Subject Alternative Name: 
                DNS:lenger
    Signature Algorithm: ecdsa-with-SHA256
         30:44:02:20:47:ba:fa:b5:cd:a6:b9:bf:08:48:f6:6d:37:38:
         bb:46:f2:0b:31:14:76:a0:a7:85:af:8a:ab:27:c4:44:51:49:
         02:20:3b:d6:74:39:95:cb:fd:56:09:3d:73:56:2f:02:87:db:
         36:d8:89:5e:9a:5b:b4:4e:66:ad:cb:3b:34:63:e2:09
-----BEGIN CERTIFICATE-----
MIIB2jCCAYGgAwIBAgIBAzAKBggqhkjOPQQDAjAZMRcwFQYDVQQDDA4xMDQuMTk5
LjE3OC4xNzAeFw0xNzA1MTcwOTExNTNaFw0yNzA1MTUwOTExNTNaMBExDzANBgNV
BAMMBmxlbmdlcjBZMBMGByqGSM49AgEGCCqGSM49AwEHA0IABHpTWQWAikLCSN4K
OyUMGBwT3ysvnqIYe4UzFckzxqqbYDJoIC8vFWHv5xR0GoAbzjBVqvvL/OkhwwTK
B5pFCnCjgcEwgb4wCQYDVR0TBAIwADAdBgNVHQ4EFgQUTRRAngos25UAvrPBZCLZ
qIopw10wSQYDVR0jBEIwQIAUzBknZaEfgH1uBx4zrhhne9ZF0muhHaQbMBkxFzAV
BgNVBAMMDjEwNC4xOTkuMTc4LjE3ggkAsKbfvQs+jnIwJwYDVR0lBCAwHgYIKwYB
BQUHAwEGCCsGAQUFBwMCBggrBgEFBQcDETALBgNVHQ8EBAMCBaAwEQYDVR0RBAow
CIIGbGVuZ2VyMAoGCCqGSM49BAMCA0cAMEQCIEe6+rXNprm/CEj2bTc4u0byCzEU
dqCnha+KqyfERFFJAiA71nQ5lcv9Vgk9c1YvAofbNtiJXppbtE5mrcs7NGPiCQ==
-----END CERTIFICATE-----
